target datalayout = "e-m:e-p270:32:32-p271:32:32-p272:64:64-i64:64-i128:128-f80:128-n8:16:32:64-S128"
target triple = "x86_64-pc-linux-gnu"

; Function Attrs: nounwind uwtable
define internal void @erosion16(ptr noundef %0, ptr noundef %1, i32 noundef %2, i32 noundef %3, ptr noundef %4, i32 noundef %5, i32 noundef %6) #1 {
  %8 = alloca ptr, align 8
  %9 = alloca ptr, align 8
  %10 = alloca i32, align 4
  %11 = alloca i32, align 4
  %12 = alloca ptr, align 8
  %13 = alloca i32, align 4
  %14 = alloca i32, align 4
  %15 = alloca ptr, align 8
  %16 = alloca i32, align 4
  %17 = alloca i32, align 4
  %18 = alloca i32, align 4
  %19 = alloca i32, align 4
  store ptr %0, ptr %8, align 8, !tbaa !64
  store ptr %1, ptr %9, align 8, !tbaa !64
  store i32 %2, ptr %10, align 4, !tbaa !42
  store i32 %3, ptr %11, align 4, !tbaa !42
  store ptr %4, ptr %12, align 8, !tbaa !69
  store i32 %5, ptr %13, align 4, !tbaa !42
  store i32 %6, ptr %14, align 4, !tbaa !42
  call void @llvm.lifetime.start.p0(i64 8, ptr %15) #5
  %20 = load ptr, ptr %8, align 8, !tbaa !64
  store ptr %20, ptr %15, align 8, !tbaa !71
  call void @llvm.lifetime.start.p0(i64 4, ptr %16) #5
  call void @llvm.lifetime.start.p0(i64 4, ptr %17) #5
  store i32 0, ptr %16, align 4, !tbaa !42
  br label %21

21:                                               ; preds = %103, %7
  %22 = load i32, ptr %16, align 4, !tbaa !42
  %23 = load i32, ptr %10, align 4, !tbaa !42
  %24 = icmp slt i32 %22, %23
  br i1 %24, label %25, label %106

25:                                               ; preds = %21
  call void @llvm.lifetime.start.p0(i64 4, ptr %18) #5
  %26 = load ptr, ptr %9, align 8, !tbaa !64
  %27 = load i32, ptr %16, align 4, !tbaa !42
  %28 = mul nsw i32 2, %27
  %29 = sext i32 %28 to i64
  %30 = getelementptr inbounds i8, ptr %26, i64 %29
  %31 = load i16, ptr %30, align 2, !tbaa !73
  %32 = zext i16 %31 to i32
  store i32 %32, ptr %18, align 4, !tbaa !42
  call void @llvm.lifetime.start.p0(i64 4, ptr %19) #5
  %33 = load i32, ptr %18, align 4, !tbaa !42
  %34 = load i32, ptr %11, align 4, !tbaa !42
  %35 = sub nsw i32 %33, %34
  %36 = icmp sgt i32 %35, 0
  br i1 %36, label %37, label %41

37:                                               ; preds = %25
  %38 = load i32, ptr %18, align 4, !tbaa !42
  %39 = load i32, ptr %11, align 4, !tbaa !42
  %40 = sub nsw i32 %38, %39
  br label %42

41:                                               ; preds = %25
  br label %42

42:                                               ; preds = %41, %37
  %43 = phi i32 [ %40, %37 ], [ 0, %41 ]
  store i32 %43, ptr %19, align 4, !tbaa !42
  store i32 0, ptr %17, align 4, !tbaa !42
  br label %44

44:                                               ; preds = %93, %42
  %45 = load i32, ptr %17, align 4, !tbaa !42
  %46 = icmp slt i32 %45, 8
  br i1 %46, label %47, label %96

47:                                               ; preds = %44
  %48 = load i32, ptr %13, align 4, !tbaa !42
  %49 = load i32, ptr %17, align 4, !tbaa !42
  %50 = shl i32 1, %49
  %51 = and i32 %48, %50
  %52 = icmp ne i32 %51, 0
  br i1 %52, label %53, label %83

53:                                               ; preds = %47
  %54 = load i32, ptr %18, align 4, !tbaa !42
  %55 = load ptr, ptr %12, align 8, !tbaa !69
  %56 = load i32, ptr %17, align 4, !tbaa !42
  %57 = sext i32 %56 to i64
  %58 = getelementptr inbounds ptr, ptr %55, i64 %57
  %59 = load ptr, ptr %58, align 8, !tbaa !64
  %60 = load i32, ptr %16, align 4, !tbaa !42
  %61 = mul nsw i32 %60, 2
  %62 = sext i32 %61 to i64
  %63 = getelementptr inbounds i8, ptr %59, i64 %62
  %64 = load i16, ptr %63, align 2, !tbaa !73
  %65 = zext i16 %64 to i32
  %66 = icmp sgt i32 %54, %65
  br i1 %66, label %67, label %79

67:                                               ; preds = %53
  %68 = load ptr, ptr %12, align 8, !tbaa !69
  %69 = load i32, ptr %17, align 4, !tbaa !42
  %70 = sext i32 %69 to i64
  %71 = getelementptr inbounds ptr, ptr %68, i64 %70
  %72 = load ptr, ptr %71, align 8, !tbaa !64
  %73 = load i32, ptr %16, align 4, !tbaa !42
  %74 = mul nsw i32 %73, 2
  %75 = sext i32 %74 to i64
  %76 = getelementptr inbounds i8, ptr %72, i64 %75
  %77 = load i16, ptr %76, align 2, !tbaa !73
  %78 = zext i16 %77 to i32
  br label %81

79:                                               ; preds = %53
  %80 = load i32, ptr %18, align 4, !tbaa !42
  br label %81

81:                                               ; preds = %79, %67
  %82 = phi i32 [ %78, %67 ], [ %80, %79 ]
  store i32 %82, ptr %18, align 4, !tbaa !42
  br label %83

83:                                               ; preds = %81, %47
  %84 = load i32, ptr %18, align 4, !tbaa !42
  %85 = load i32, ptr %19, align 4, !tbaa !42
  %86 = icmp sgt i32 %84, %85
  br i1 %86, label %87, label %89

87:                                               ; preds = %83
  %88 = load i32, ptr %18, align 4, !tbaa !42
  br label %91

89:                                               ; preds = %83
  %90 = load i32, ptr %19, align 4, !tbaa !42
  br label %91

91:                                               ; preds = %89, %87
  %92 = phi i32 [ %88, %87 ], [ %90, %89 ]
  store i32 %92, ptr %18, align 4, !tbaa !42
  br label %93

93:                                               ; preds = %91
  %94 = load i32, ptr %17, align 4, !tbaa !42
  %95 = add nsw i32 %94, 1
  store i32 %95, ptr %17, align 4, !tbaa !42
  br label %44, !llvm.loop !74

96:                                               ; preds = %44
  %97 = load i32, ptr %18, align 4, !tbaa !42
  %98 = trunc i32 %97 to i16
  %99 = load ptr, ptr %15, align 8, !tbaa !71
  %100 = load i32, ptr %16, align 4, !tbaa !42
  %101 = sext i32 %100 to i64
  %102 = getelementptr inbounds i16, ptr %99, i64 %101
  store i16 %98, ptr %102, align 2, !tbaa !75
  call void @llvm.lifetime.end.p0(i64 4, ptr %19) #5
  call void @llvm.lifetime.end.p0(i64 4, ptr %18) #5
  br label %103

103:                                              ; preds = %96
  %104 = load i32, ptr %16, align 4, !tbaa !42
  %105 = add nsw i32 %104, 1
  store i32 %105, ptr %16, align 4, !tbaa !42
  br label %21, !llvm.loop !77

106:                                              ; preds = %21
  call void @llvm.lifetime.end.p0(i64 4, ptr %17) #5
  call void @llvm.lifetime.end.p0(i64 4, ptr %16) #5
  call void @llvm.lifetime.end.p0(i64 8, ptr %15) #5
  ret void
}