; Function Attrs: nofree norecurse nosync nounwind memory(read, argmem: readwrite, inaccessiblemem: none) uwtable
define internal void @erosion16(ptr noundef writeonly captures(none) %0, ptr noundef readonly captures(none) %1, i32 noundef %2, i32 noundef %3, ptr noundef readonly captures(none) %4, i32 noundef %5, i32 %6) #5 {
  %8 = icmp sgt i32 %2, 0
  br i1 %8, label %.lr.ph.preheader, label %._crit_edge

.lr.ph.preheader:                                 ; preds = %7
  %wide.trip.count = zext nneg i32 %2 to i64
  br label %.lr.ph

.lr.ph:                                           ; preds = %.lr.ph.preheader, %27
  %indvars.iv35 = phi i64 [ 0, %.lr.ph.preheader ], [ %indvars.iv.next36, %27 ]
  %9 = shl nuw nsw i64 %indvars.iv35, 1
  %10 = getelementptr inbounds nuw i8, ptr %1, i64 %9
  %11 = load i16, ptr %10, align 2, !tbaa !61
  %12 = zext i16 %11 to i32
  %13 = sub nsw i32 %12, %3
  br label %14

14:                                               ; preds = %.lr.ph, %24
  %indvars.iv = phi i64 [ 0, %.lr.ph ], [ %indvars.iv.next, %24 ]
  %.02832 = phi i32 [ %12, %.lr.ph ], [ %26, %24 ]
  %15 = trunc nuw nsw i64 %indvars.iv to i32
  %16 = shl nuw nsw i32 1, %15
  %17 = and i32 %16, %5
  %.not = icmp eq i32 %17, 0
  br i1 %.not, label %24, label %18

18:                                               ; preds = %14
  %19 = getelementptr inbounds nuw ptr, ptr %4, i64 %indvars.iv
  %20 = load ptr, ptr %19, align 8, !tbaa !56
  %21 = getelementptr inbounds nuw i8, ptr %20, i64 %9
  %22 = load i16, ptr %21, align 2, !tbaa !61
  %23 = zext i16 %22 to i32
  %..028 = tail call i32 @llvm.umin.i32(i32 %.02832, i32 %23)
  br label %24

24:                                               ; preds = %18, %14
  %.1 = phi i32 [ %..028, %18 ], [ %.02832, %14 ]
  %25 = tail call i32 @llvm.smax.i32(i32 %13, i32 %.1)
  %26 = tail call i32 @llvm.smax.i32(i32 %25, i32 0)
  %indvars.iv.next = add nuw nsw i64 %indvars.iv, 1
  %exitcond.not = icmp eq i64 %indvars.iv.next, 8
  br i1 %exitcond.not, label %27, label %14, !llvm.loop !62

27:                                               ; preds = %24
  %28 = trunc i32 %26 to i16
  %29 = getelementptr inbounds nuw i16, ptr %0, i64 %indvars.iv35
  store i16 %28, ptr %29, align 2, !tbaa !63
  %indvars.iv.next36 = add nuw nsw i64 %indvars.iv35, 1
  %exitcond38.not = icmp eq i64 %indvars.iv.next36, %wide.trip.count
  br i1 %exitcond38.not, label %._crit_edge, label %.lr.ph, !llvm.loop !65

._crit_edge:                                      ; preds = %27, %7
  ret void
}